target datalayout = "e-m:e-p270:32:32-p271:32:32-p272:64:64-i64:64-i128:128-f80:128-n8:16:32:64-S128"
target triple = "x86_64-pc-linux-gnu"

%struct.asn1_string_st = type { i32, i32, ptr, i64 }

; Function Attrs: nounwind uwtable
define hidden i32 @ASN1_STRING_print(ptr noundef %0, ptr noundef %1) #0 {
  %3 = alloca i32, align 4
  %4 = alloca ptr, align 8
  %5 = alloca ptr, align 8
  %6 = alloca i32, align 4
  %7 = alloca i32, align 4
  %8 = alloca [80 x i8], align 16
  %9 = alloca ptr, align 8
  %10 = alloca i32, align 4
  store ptr %0, ptr %4, align 8, !tbaa !15
  store ptr %1, ptr %5, align 8, !tbaa !45
  call void @llvm.lifetime.start.p0(i64 4, ptr %6) #5
  call void @llvm.lifetime.start.p0(i64 4, ptr %7) #5
  call void @llvm.lifetime.start.p0(i64 80, ptr %8) #5
  call void @llvm.lifetime.start.p0(i64 8, ptr %9) #5
  %11 = load ptr, ptr %5, align 8, !tbaa !45
  %12 = icmp eq ptr %11, null
  br i1 %12, label %13, label %14

13:                                               ; preds = %2
  store i32 0, ptr %3, align 4
  store i32 1, ptr %10, align 4
  br label %98

14:                                               ; preds = %2
  store i32 0, ptr %7, align 4, !tbaa !17
  %15 = load ptr, ptr %5, align 8, !tbaa !45
  %16 = getelementptr inbounds nuw %struct.asn1_string_st, ptr %15, i32 0, i32 2
  %17 = load ptr, ptr %16, align 8, !tbaa !48
  store ptr %17, ptr %9, align 8, !tbaa !19
  store i32 0, ptr %6, align 4, !tbaa !17
  br label %18

18:                                               ; preds = %83, %14
  %19 = load i32, ptr %6, align 4, !tbaa !17
  %20 = load ptr, ptr %5, align 8, !tbaa !45
  %21 = getelementptr inbounds nuw %struct.asn1_string_st, ptr %20, i32 0, i32 0
  %22 = load i32, ptr %21, align 8, !tbaa !46
  %23 = icmp slt i32 %19, %22
  br i1 %23, label %24, label %86

24:                                               ; preds = %18
  %25 = load ptr, ptr %9, align 8, !tbaa !19
  %26 = load i32, ptr %6, align 4, !tbaa !17
  %27 = sext i32 %26 to i64
  %28 = getelementptr inbounds i8, ptr %25, i64 %27
  %29 = load i8, ptr %28, align 1, !tbaa !21
  %30 = sext i8 %29 to i32
  %31 = icmp sgt i32 %30, 126
  br i1 %31, label %56, label %32

32:                                               ; preds = %24
  %33 = load ptr, ptr %9, align 8, !tbaa !19
  %34 = load i32, ptr %6, align 4, !tbaa !17
  %35 = sext i32 %34 to i64
  %36 = getelementptr inbounds i8, ptr %33, i64 %35
  %37 = load i8, ptr %36, align 1, !tbaa !21
  %38 = sext i8 %37 to i32
  %39 = icmp slt i32 %38, 32
  br i1 %39, label %40, label %60

40:                                               ; preds = %32
  %41 = load ptr, ptr %9, align 8, !tbaa !19
  %42 = load i32, ptr %6, align 4, !tbaa !17
  %43 = sext i32 %42 to i64
  %44 = getelementptr inbounds i8, ptr %41, i64 %43
  %45 = load i8, ptr %44, align 1, !tbaa !21
  %46 = sext i8 %45 to i32
  %47 = icmp ne i32 %46, 10
  br i1 %47, label %48, label %60

48:                                               ; preds = %40
  %49 = load ptr, ptr %9, align 8, !tbaa !19
  %50 = load i32, ptr %6, align 4, !tbaa !17
  %51 = sext i32 %50 to i64
  %52 = getelementptr inbounds i8, ptr %49, i64 %51
  %53 = load i8, ptr %52, align 1, !tbaa !21
  %54 = sext i8 %53 to i32
  %55 = icmp ne i32 %54, 13
  br i1 %55, label %56, label %60

56:                                               ; preds = %48, %24
  %57 = load i32, ptr %7, align 4, !tbaa !17
  %58 = sext i32 %57 to i64
  %59 = getelementptr inbounds [80 x i8], ptr %8, i64 0, i64 %58
  store i8 46, ptr %59, align 1, !tbaa !21
  br label %69

60:                                               ; preds = %48, %40, %32
  %61 = load ptr, ptr %9, align 8, !tbaa !19
  %62 = load i32, ptr %6, align 4, !tbaa !17
  %63 = sext i32 %62 to i64
  %64 = getelementptr inbounds i8, ptr %61, i64 %63
  %65 = load i8, ptr %64, align 1, !tbaa !21
  %66 = load i32, ptr %7, align 4, !tbaa !17
  %67 = sext i32 %66 to i64
  %68 = getelementptr inbounds [80 x i8], ptr %8, i64 0, i64 %67
  store i8 %65, ptr %68, align 1, !tbaa !21
  br label %69

69:                                               ; preds = %60, %56
  %70 = load i32, ptr %7, align 4, !tbaa !17
  %71 = add nsw i32 %70, 1
  store i32 %71, ptr %7, align 4, !tbaa !17
  %72 = load i32, ptr %7, align 4, !tbaa !17
  %73 = icmp sge i32 %72, 80
  br i1 %73, label %74, label %82

74:                                               ; preds = %69
  %75 = load ptr, ptr %4, align 8, !tbaa !15
  %76 = getelementptr inbounds [80 x i8], ptr %8, i64 0, i64 0
  %77 = load i32, ptr %7, align 4, !tbaa !17
  %78 = call i32 @BIO_write(ptr noundef %75, ptr noundef %76, i32 noundef %77)
  %79 = icmp sle i32 %78, 0
  br i1 %79, label %80, label %81

80:                                               ; preds = %74
  store i32 0, ptr %3, align 4
  store i32 1, ptr %10, align 4
  br label %98

81:                                               ; preds = %74
  store i32 0, ptr %7, align 4, !tbaa !17
  br label %82

82:                                               ; preds = %81, %69
  br label %83

83:                                               ; preds = %82
  %84 = load i32, ptr %6, align 4, !tbaa !17
  %85 = add nsw i32 %84, 1
  store i32 %85, ptr %6, align 4, !tbaa !17
  br label %18, !llvm.loop !75

86:                                               ; preds = %18
  %87 = load i32, ptr %7, align 4, !tbaa !17
  %88 = icmp sgt i32 %87, 0
  br i1 %88, label %89, label %97

89:                                               ; preds = %86
  %90 = load ptr, ptr %4, align 8, !tbaa !15
  %91 = getelementptr inbounds [80 x i8], ptr %8, i64 0, i64 0
  %92 = load i32, ptr %7, align 4, !tbaa !17
  %93 = call i32 @BIO_write(ptr noundef %90, ptr noundef %91, i32 noundef %92)
  %94 = icmp sle i32 %93, 0
  br i1 %94, label %95, label %96

95:                                               ; preds = %89
  store i32 0, ptr %3, align 4
  store i32 1, ptr %10, align 4
  br label %98

96:                                               ; preds = %89
  br label %97

97:                                               ; preds = %96, %86
  store i32 1, ptr %3, align 4
  store i32 1, ptr %10, align 4
  br label %98

98:                                               ; preds = %97, %95, %80, %13
  call void @llvm.lifetime.end.p0(i64 8, ptr %9) #5
  call void @llvm.lifetime.end.p0(i64 80, ptr %8) #5
  call void @llvm.lifetime.end.p0(i64 4, ptr %7) #5
  call void @llvm.lifetime.end.p0(i64 4, ptr %6) #5
  %99 = load i32, ptr %3, align 4
  ret i32 %99
}