; Function Attrs: nounwind uwtable
define hidden range(i32 0, 2) i32 @ASN1_STRING_print(ptr noundef %0, ptr noundef readonly captures(address_is_null) %1) local_unnamed_addr #0 {
  %3 = alloca [80 x i8], align 16
  call void @llvm.lifetime.start.p0(i64 80, ptr nonnull %3) #5
  %4 = icmp eq ptr %1, null
  br i1 %4, label %.loopexit, label %5

5:                                                ; preds = %2
  %6 = getelementptr inbounds nuw i8, ptr %1, i64 8
  %7 = load ptr, ptr %6, align 8, !tbaa !34
  %8 = load i32, ptr %1, align 8, !tbaa !32
  %9 = icmp sgt i32 %8, 0
  br i1 %9, label %.lr.ph, label %._crit_edge.thread

.lr.ph:                                           ; preds = %5, %24
  %10 = phi i32 [ %25, %24 ], [ %8, %5 ]
  %indvars.iv = phi i64 [ %indvars.iv.next, %24 ], [ 0, %5 ]
  %.02434 = phi i32 [ %.1, %24 ], [ 0, %5 ]
  %11 = getelementptr inbounds nuw i8, ptr %7, i64 %indvars.iv
  %12 = load i8, ptr %11, align 1, !tbaa !35
  %.fr = freeze i8 %12
  %13 = icmp eq i8 %.fr, 127
  br i1 %13, label %16, label %14

14:                                               ; preds = %.lr.ph
  %15 = icmp sgt i8 %.fr, 31
  br i1 %15, label %16, label %switch.early.test

switch.early.test:                                ; preds = %14
  %switch.selectcmp = icmp eq i8 %.fr, 10
  %switch.select = select i1 %switch.selectcmp, i8 10, i8 46
  %switch.selectcmp39 = icmp eq i8 %.fr, 13
  %switch.select40 = select i1 %switch.selectcmp39, i8 13, i8 %switch.select
  br label %16

16:                                               ; preds = %14, %.lr.ph, %switch.early.test
  %.fr.sink = phi i8 [ %switch.select40, %switch.early.test ], [ 46, %.lr.ph ], [ %.fr, %14 ]
  %17 = sext i32 %.02434 to i64
  %18 = getelementptr inbounds [80 x i8], ptr %3, i64 0, i64 %17
  store i8 %.fr.sink, ptr %18, align 1, !tbaa !35
  %19 = add nsw i32 %.02434, 1
  %20 = icmp sgt i32 %.02434, 78
  br i1 %20, label %21, label %24

21:                                               ; preds = %16
  %22 = call i32 @BIO_write(ptr noundef %0, ptr noundef nonnull %3, i32 noundef %19) #5
  %23 = icmp slt i32 %22, 1
  br i1 %23, label %.loopexit, label %._crit_edge36

._crit_edge36:                                    ; preds = %21
  %.pre = load i32, ptr %1, align 8, !tbaa !32
  br label %24

24:                                               ; preds = %._crit_edge36, %16
  %25 = phi i32 [ %10, %16 ], [ %.pre, %._crit_edge36 ]
  %.1 = phi i32 [ %19, %16 ], [ 0, %._crit_edge36 ]
  %indvars.iv.next = add nuw nsw i64 %indvars.iv, 1
  %26 = sext i32 %25 to i64
  %27 = icmp slt i64 %indvars.iv.next, %26
  br i1 %27, label %.lr.ph, label %._crit_edge, !llvm.loop !63

._crit_edge:                                      ; preds = %24
  %28 = icmp sgt i32 %.1, 0
  br i1 %28, label %29, label %._crit_edge.thread

29:                                               ; preds = %._crit_edge
  %30 = call i32 @BIO_write(ptr noundef %0, ptr noundef nonnull %3, i32 noundef %.1) #5
  %31 = icmp slt i32 %30, 1
  br i1 %31, label %.loopexit, label %._crit_edge.thread

._crit_edge.thread:                               ; preds = %5, %29, %._crit_edge
  br label %.loopexit

.loopexit:                                        ; preds = %21, %29, %2, %._crit_edge.thread
  %.0 = phi i32 [ 1, %._crit_edge.thread ], [ 0, %2 ], [ 0, %29 ], [ 0, %21 ]
  call void @llvm.lifetime.end.p0(i64 80, ptr nonnull %3) #5
  ret i32 %.0
}